; Function Attrs: mustprogress nounwind uwtable
define hidden void @_ZN13NonJavaThread8IteratorC2Ev(ptr nocapture noundef nonnull writeonly align 8 dereferenceable(16) %0) unnamed_addr #0 align 2 {
  %2 = tail call noundef i32 asm sideeffect "lock xaddl $0,($2)", "=r,0,r,~{cc},~{memory},~{dirflag},~{fpsr},~{flags}"(i32 2, ptr nonnull getelementptr inbounds (i8, ptr @_ZN13NonJavaThread9_the_listE, i64 8)) #11, !srcloc !6
  %3 = add i32 %2, 2
  store i32 %3, ptr %0, align 8
  %4 = getelementptr inbounds i8, ptr %0, i64 8
  %5 = load volatile ptr, ptr @_ZN13NonJavaThread9_the_listE, align 8
  tail call void asm sideeffect "", "~{memory},~{dirflag},~{fpsr},~{flags}"() #11, !srcloc !7
  store ptr %5, ptr %4, align 8
  ret void
}